target datalayout = "e-m:e-p270:32:32-p271:32:32-p272:64:64-i64:64-i128:128-f80:128-n8:16:32:64-S128"
target triple = "x86_64-unknown-linux-gnu"

%union.pthread_mutex_t = type { %struct.__pthread_mutex_s }
%struct.__pthread_mutex_s = type { i32, i32, i32, i32, i32, i16, i16, %struct.__pthread_internal_list }
%struct.__pthread_internal_list = type { ptr, ptr }
%struct.QTailQLink = type { ptr, ptr }
%struct.QemuMutex = type { %union.pthread_mutex_t, i8 }
%struct.CPUState = type { %struct.DeviceState, ptr, i32, i32, ptr, i32, i8, i8, ptr, i8, i8, i8, i8, i8, i8, i8, i8, i32, i32, i32, i32, i64, i64, i64, [1 x %struct.__jmp_buf_tag], %struct.QemuMutex, %struct.anon.5, ptr, i32, ptr, ptr, ptr, ptr, i32, i32, %union.anon.6, %union.anon.7, %union.anon.8, ptr, ptr, i64, i32, ptr, ptr, ptr, i32, i64, i32, %struct.QemuLockCnt, [1 x i64], ptr, i32, i32, i32, i32, i32, ptr, i8, i8, i64, i8, i8, ptr, [8 x i8], [0 x i8], %struct.CPUNegativeOffsetState }
%struct.DeviceState = type { %struct.Object, ptr, ptr, i8, i8, i64, ptr, i32, i8, ptr, %struct.NamedGPIOListHead, %struct.NamedClockListHead, %struct.BusStateHead, i32, i32, i32, %struct.ResettableState, ptr, %struct.MemReentrancyGuard }
%struct.Object = type { ptr, ptr, ptr, i32, ptr }
%struct.NamedGPIOListHead = type { ptr }
%struct.NamedClockListHead = type { ptr }
%struct.BusStateHead = type { ptr }
%struct.ResettableState = type { i32, i8, i8 }
%struct.MemReentrancyGuard = type { i8 }
%struct.__jmp_buf_tag = type { [8 x i64], i32, %struct.__sigset_t }
%struct.__sigset_t = type { [16 x i64] }
%struct.anon.5 = type { ptr, ptr }
%union.anon.6 = type { %struct.QTailQLink }
%union.anon.7 = type { %struct.QTailQLink }
%union.anon.8 = type { %struct.QTailQLink }
%struct.QemuLockCnt = type { i32 }
%struct.CPUNegativeOffsetState = type { %struct.CPUTLB, %union.IcountDecr, i8, [11 x i8] }
%struct.CPUTLB = type { %struct.CPUTLBCommon, [16 x %struct.CPUTLBDesc], [16 x %struct.CPUTLBDescFast] }
%struct.CPUTLBCommon = type { %struct.QemuSpin, i16, i64, i64, i64 }
%struct.QemuSpin = type { i32 }
%struct.CPUTLBDesc = type { i64, i64, i64, i64, i64, i64, [8 x %union.CPUTLBEntry], [8 x %struct.CPUTLBEntryFull], ptr }
%union.CPUTLBEntry = type { %struct.anon.9 }
%struct.anon.9 = type { i64, i64, i64, i64 }
%struct.CPUTLBEntryFull = type { i64, i64, %struct.MemTxAttrs, i8, i8, [3 x i8], %union.anon.10 }
%struct.MemTxAttrs = type { i32 }
%union.anon.10 = type { %struct.anon.11 }
%struct.anon.11 = type { i8, i8, i8 }
%struct.CPUTLBDescFast = type { i64, ptr }
%union.IcountDecr = type { i32 }
%struct.open_self_maps_data = type { ptr, ptr, i32, i8 }

; Function Attrs: nounwind sspstrong uwtable
define internal ptr @env_cpu(ptr noundef %env) #0 {
entry:
  %env.addr = alloca ptr, align 8
  store ptr %env, ptr %env.addr, align 8
  %0 = load ptr, ptr %env.addr, align 8
  %add.ptr = getelementptr i8, ptr %0, i64 -10176
  ret ptr %add.ptr
}

; Function Attrs: nounwind sspstrong uwtable
define internal i32 @open_self_maps_1(ptr noundef %env, i32 noundef %fd, i1 noundef zeroext %smaps) #0 {
entry:
  %env.addr = alloca ptr, align 8
  %fd.addr = alloca i32, align 4
  %smaps.addr = alloca i8, align 1
  %d = alloca %struct.open_self_maps_data, align 8
  store ptr %env, ptr %env.addr, align 8
  store i32 %fd, ptr %fd.addr, align 4
  %frombool = zext i1 %smaps to i8
  store i8 %frombool, ptr %smaps.addr, align 1
  %ts = getelementptr inbounds %struct.open_self_maps_data, ptr %d, i32 0, i32 0
  %0 = load ptr, ptr %env.addr, align 8
  %call = call ptr @env_cpu(ptr noundef %0)
  %opaque = getelementptr inbounds %struct.CPUState, ptr %call, i32 0, i32 39
  %1 = load ptr, ptr %opaque, align 16
  store ptr %1, ptr %ts, align 8
  %host_maps = getelementptr inbounds %struct.open_self_maps_data, ptr %d, i32 0, i32 1
  %call1 = call ptr @read_self_maps()
  store ptr %call1, ptr %host_maps, align 8
  %fd2 = getelementptr inbounds %struct.open_self_maps_data, ptr %d, i32 0, i32 2
  %2 = load i32, ptr %fd.addr, align 4
  store i32 %2, ptr %fd2, align 8
  %smaps3 = getelementptr inbounds %struct.open_self_maps_data, ptr %d, i32 0, i32 3
  %3 = load i8, ptr %smaps.addr, align 1
  %tobool = trunc i8 %3 to i1
  %frombool4 = zext i1 %tobool to i8
  store i8 %frombool4, ptr %smaps3, align 4
  %host_maps5 = getelementptr inbounds %struct.open_self_maps_data, ptr %d, i32 0, i32 1
  %4 = load ptr, ptr %host_maps5, align 8
  %tobool6 = icmp ne ptr %4, null
  br i1 %tobool6, label %if.then, label %if.else

if.then:                                          ; preds = %entry
  %call7 = call i32 @walk_memory_regions(ptr noundef %d, ptr noundef @open_self_maps_2)
  %host_maps8 = getelementptr inbounds %struct.open_self_maps_data, ptr %d, i32 0, i32 1
  %5 = load ptr, ptr %host_maps8, align 8
  call void @free_self_maps(ptr noundef %5)
  br label %if.end

if.else:                                          ; preds = %entry
  %call9 = call i32 @walk_memory_regions(ptr noundef %d, ptr noundef @open_self_maps_3)
  br label %if.end

if.end:                                           ; preds = %if.else, %if.then
  ret i32 0
}

; Function Attrs: nounwind sspstrong uwtable
define internal i32 @open_self_smaps(ptr noundef %cpu_env, i32 noundef %fd) #0 {
entry:
  %cpu_env.addr = alloca ptr, align 8
  %fd.addr = alloca i32, align 4
  store ptr %cpu_env, ptr %cpu_env.addr, align 8
  store i32 %fd, ptr %fd.addr, align 4
  %0 = load ptr, ptr %cpu_env.addr, align 8
  %1 = load i32, ptr %fd.addr, align 4
  %call = call i32 @open_self_maps_1(ptr noundef %0, i32 noundef %1, i1 noundef zeroext true)
  ret i32 %call
}