; Function Attrs: nounwind sspstrong uwtable
define internal noundef i32 @open_self_smaps(ptr noundef readonly captures(none) %cpu_env, i32 noundef %fd) #2 {
entry:
  %d.i = alloca %struct.open_self_maps_data, align 8
  %0 = getelementptr i8, ptr %cpu_env, i64 -9552
  %cpu_env.val = load ptr, ptr %0, align 16
  call void @llvm.lifetime.start.p0(i64 24, ptr nonnull %d.i)
  store ptr %cpu_env.val, ptr %d.i, align 8
  %host_maps.i = getelementptr inbounds nuw i8, ptr %d.i, i64 8
  %call1.i = tail call ptr @read_self_maps() #27
  store ptr %call1.i, ptr %host_maps.i, align 8
  %fd2.i = getelementptr inbounds nuw i8, ptr %d.i, i64 16
  store i32 %fd, ptr %fd2.i, align 8
  %smaps3.i = getelementptr inbounds nuw i8, ptr %d.i, i64 20
  store i8 1, ptr %smaps3.i, align 4
  %tobool6.not.i = icmp eq ptr %call1.i, null
  br i1 %tobool6.not.i, label %if.else.i, label %if.then.i

if.then.i:                                        ; preds = %entry
  %call7.i = call i32 @walk_memory_regions(ptr noundef nonnull %d.i, ptr noundef nonnull @open_self_maps_2) #27
  %1 = load ptr, ptr %host_maps.i, align 8
  call void @free_self_maps(ptr noundef %1) #27
  br label %open_self_maps_1.exit

if.else.i:                                        ; preds = %entry
  %call9.i = call i32 @walk_memory_regions(ptr noundef nonnull %d.i, ptr noundef nonnull @open_self_maps_3) #27
  br label %open_self_maps_1.exit

open_self_maps_1.exit:                            ; preds = %if.then.i, %if.else.i
  call void @llvm.lifetime.end.p0(i64 24, ptr nonnull %d.i)
  ret i32 0
}